target datalayout = "e-m:e-p270:32:32-p271:32:32-p272:64:64-i64:64-i128:128-f80:128-n8:16:32:64-S128"
target triple = "x86_64-pc-linux-gnu"

%struct.Path = type { i32, i32, ptr, ptr, ptr, i8, i8, i32, double, i32, double, double, ptr }
%struct.IndexPath = type { %struct.Path, ptr, ptr, ptr, ptr, i32, double, double }
%struct.IndexOptInfo = type { i32, i32, i32, ptr, i32, double, i32, i32, i32, ptr, ptr, ptr, ptr, ptr, ptr, ptr, ptr, ptr, i32, ptr, ptr, ptr, ptr, i8, i8, i8, i8, i8, i8, i8, i8, i8, i8, i8, i8, i8, ptr }
%struct.ForEachState = type { ptr, i32 }
%struct.List = type { i32, i32, i32, ptr, [0 x %union.ListCell] }
%union.ListCell = type { ptr }
%struct.Node = type { i32 }
%struct.BitmapAndPath = type { %struct.Path, ptr, double }
%struct.BitmapOrPath = type { %struct.Path, ptr, double }

@.str = private unnamed_addr constant [27 x i8] c"unrecognized node type: %d\00", align 1
@.str.1 = private unnamed_addr constant [11 x i8] c"costsize.c\00", align 1
@__func__.get_indexpath_pages = private unnamed_addr constant [20 x i8] c"get_indexpath_pages\00", align 1

; Function Attrs: nounwind uwtable
define internal double @get_indexpath_pages(ptr noundef %0) #0 {
  %2 = alloca ptr, align 8
  %3 = alloca double, align 8
  %4 = alloca ptr, align 8
  %5 = alloca ptr, align 8
  %6 = alloca %struct.ForEachState, align 8
  %7 = alloca ptr, align 8
  %8 = alloca %struct.ForEachState, align 8
  %9 = alloca ptr, align 8
  store ptr %0, ptr %2, align 8
  call void @llvm.lifetime.start.p0(i64 8, ptr %3) #9
  store double 0.000000e+00, ptr %3, align 8
  call void @llvm.lifetime.start.p0(i64 8, ptr %4) #9
  %10 = load ptr, ptr %2, align 8
  %11 = getelementptr inbounds nuw %struct.Node, ptr %10, i32 0, i32 0
  %12 = load i32, ptr %11, align 4
  %13 = icmp eq i32 %12, 282
  br i1 %13, label %14, label %59

14:                                               ; preds = %1
  call void @llvm.lifetime.start.p0(i64 8, ptr %5) #9
  %15 = load ptr, ptr %2, align 8
  store ptr %15, ptr %5, align 8
  call void @llvm.lifetime.start.p0(i64 16, ptr %6) #9
  %16 = getelementptr inbounds nuw %struct.ForEachState, ptr %6, i32 0, i32 0
  %17 = load ptr, ptr %5, align 8
  %18 = getelementptr inbounds nuw %struct.BitmapAndPath, ptr %17, i32 0, i32 1
  %19 = load ptr, ptr %18, align 8
  store ptr %19, ptr %16, align 8
  %20 = getelementptr inbounds nuw %struct.ForEachState, ptr %6, i32 0, i32 1
  store i32 0, ptr %20, align 8
  %21 = getelementptr i8, ptr %6, i64 12
  call void @llvm.memset.p0.i64(ptr align 4 %21, i8 0, i64 4, i1 false)
  br label %22

22:                                               ; preds = %54, %14
  %23 = getelementptr inbounds nuw %struct.ForEachState, ptr %6, i32 0, i32 0
  %24 = load ptr, ptr %23, align 8
  %25 = icmp ne ptr %24, null
  br i1 %25, label %26, label %43

26:                                               ; preds = %22
  %27 = getelementptr inbounds nuw %struct.ForEachState, ptr %6, i32 0, i32 1
  %28 = load i32, ptr %27, align 8
  %29 = getelementptr inbounds nuw %struct.ForEachState, ptr %6, i32 0, i32 0
  %30 = load ptr, ptr %29, align 8
  %31 = getelementptr inbounds nuw %struct.List, ptr %30, i32 0, i32 1
  %32 = load i32, ptr %31, align 4
  %33 = icmp slt i32 %28, %32
  br i1 %33, label %34, label %43

34:                                               ; preds = %26
  %35 = getelementptr inbounds nuw %struct.ForEachState, ptr %6, i32 0, i32 0
  %36 = load ptr, ptr %35, align 8
  %37 = getelementptr inbounds nuw %struct.List, ptr %36, i32 0, i32 3
  %38 = load ptr, ptr %37, align 8
  %39 = getelementptr inbounds nuw %struct.ForEachState, ptr %6, i32 0, i32 1
  %40 = load i32, ptr %39, align 8
  %41 = sext i32 %40 to i64
  %42 = getelementptr inbounds %union.ListCell, ptr %38, i64 %41
  store ptr %42, ptr %4, align 8
  br label %44

43:                                               ; preds = %26, %22
  store ptr null, ptr %4, align 8
  br label %44

44:                                               ; preds = %43, %34
  %45 = phi i32 [ 1, %34 ], [ 0, %43 ]
  %46 = icmp ne i32 %45, 0
  br i1 %46, label %48, label %47

47:                                               ; preds = %44
  call void @llvm.lifetime.end.p0(i64 16, ptr %6) #9
  br label %58

48:                                               ; preds = %44
  %49 = load ptr, ptr %4, align 8
  %50 = load ptr, ptr %49, align 8
  %51 = call double @get_indexpath_pages(ptr noundef %50)
  %52 = load double, ptr %3, align 8
  %53 = fadd double %52, %51
  store double %53, ptr %3, align 8
  br label %54

54:                                               ; preds = %48
  %55 = getelementptr inbounds nuw %struct.ForEachState, ptr %6, i32 0, i32 1
  %56 = load i32, ptr %55, align 8
  %57 = add i32 %56, 1
  store i32 %57, ptr %55, align 8
  br label %22, !llvm.loop !34

58:                                               ; preds = %47
  call void @llvm.lifetime.end.p0(i64 8, ptr %5) #9
  br label %138

59:                                               ; preds = %1
  %60 = load ptr, ptr %2, align 8
  %61 = getelementptr inbounds nuw %struct.Node, ptr %60, i32 0, i32 0
  %62 = load i32, ptr %61, align 4
  %63 = icmp eq i32 %62, 283
  br i1 %63, label %64, label %109

64:                                               ; preds = %59
  call void @llvm.lifetime.start.p0(i64 8, ptr %7) #9
  %65 = load ptr, ptr %2, align 8
  store ptr %65, ptr %7, align 8
  call void @llvm.lifetime.start.p0(i64 16, ptr %8) #9
  %66 = getelementptr inbounds nuw %struct.ForEachState, ptr %8, i32 0, i32 0
  %67 = load ptr, ptr %7, align 8
  %68 = getelementptr inbounds nuw %struct.BitmapOrPath, ptr %67, i32 0, i32 1
  %69 = load ptr, ptr %68, align 8
  store ptr %69, ptr %66, align 8
  %70 = getelementptr inbounds nuw %struct.ForEachState, ptr %8, i32 0, i32 1
  store i32 0, ptr %70, align 8
  %71 = getelementptr i8, ptr %8, i64 12
  call void @llvm.memset.p0.i64(ptr align 4 %71, i8 0, i64 4, i1 false)
  br label %72

72:                                               ; preds = %104, %64
  %73 = getelementptr inbounds nuw %struct.ForEachState, ptr %8, i32 0, i32 0
  %74 = load ptr, ptr %73, align 8
  %75 = icmp ne ptr %74, null
  br i1 %75, label %76, label %93

76:                                               ; preds = %72
  %77 = getelementptr inbounds nuw %struct.ForEachState, ptr %8, i32 0, i32 1
  %78 = load i32, ptr %77, align 8
  %79 = getelementptr inbounds nuw %struct.ForEachState, ptr %8, i32 0, i32 0
  %80 = load ptr, ptr %79, align 8
  %81 = getelementptr inbounds nuw %struct.List, ptr %80, i32 0, i32 1
  %82 = load i32, ptr %81, align 4
  %83 = icmp slt i32 %78, %82
  br i1 %83, label %84, label %93

84:                                               ; preds = %76
  %85 = getelementptr inbounds nuw %struct.ForEachState, ptr %8, i32 0, i32 0
  %86 = load ptr, ptr %85, align 8
  %87 = getelementptr inbounds nuw %struct.List, ptr %86, i32 0, i32 3
  %88 = load ptr, ptr %87, align 8
  %89 = getelementptr inbounds nuw %struct.ForEachState, ptr %8, i32 0, i32 1
  %90 = load i32, ptr %89, align 8
  %91 = sext i32 %90 to i64
  %92 = getelementptr inbounds %union.ListCell, ptr %88, i64 %91
  store ptr %92, ptr %4, align 8
  br label %94

93:                                               ; preds = %76, %72
  store ptr null, ptr %4, align 8
  br label %94

94:                                               ; preds = %93, %84
  %95 = phi i32 [ 1, %84 ], [ 0, %93 ]
  %96 = icmp ne i32 %95, 0
  br i1 %96, label %98, label %97

97:                                               ; preds = %94
  call void @llvm.lifetime.end.p0(i64 16, ptr %8) #9
  br label %108

98:                                               ; preds = %94
  %99 = load ptr, ptr %4, align 8
  %100 = load ptr, ptr %99, align 8
  %101 = call double @get_indexpath_pages(ptr noundef %100)
  %102 = load double, ptr %3, align 8
  %103 = fadd double %102, %101
  store double %103, ptr %3, align 8
  br label %104

104:                                              ; preds = %98
  %105 = getelementptr inbounds nuw %struct.ForEachState, ptr %8, i32 0, i32 1
  %106 = load i32, ptr %105, align 8
  %107 = add i32 %106, 1
  store i32 %107, ptr %105, align 8
  br label %72, !llvm.loop !35

108:                                              ; preds = %97
  call void @llvm.lifetime.end.p0(i64 8, ptr %7) #9
  br label %137

109:                                              ; preds = %59
  %110 = load ptr, ptr %2, align 8
  %111 = getelementptr inbounds nuw %struct.Node, ptr %110, i32 0, i32 0
  %112 = load i32, ptr %111, align 4
  %113 = icmp eq i32 %112, 279
  br i1 %113, label %114, label %122

114:                                              ; preds = %109
  call void @llvm.lifetime.start.p0(i64 8, ptr %9) #9
  %115 = load ptr, ptr %2, align 8
  store ptr %115, ptr %9, align 8
  %116 = load ptr, ptr %9, align 8
  %117 = getelementptr inbounds nuw %struct.IndexPath, ptr %116, i32 0, i32 1
  %118 = load ptr, ptr %117, align 8
  %119 = getelementptr inbounds nuw %struct.IndexOptInfo, ptr %118, i32 0, i32 4
  %120 = load i32, ptr %119, align 8
  %121 = uitofp i32 %120 to double
  store double %121, ptr %3, align 8
  call void @llvm.lifetime.end.p0(i64 8, ptr %9) #9
  br label %136

122:                                              ; preds = %109
  br label %123

123:                                              ; preds = %122
  br i1 true, label %124, label %126

124:                                              ; preds = %123
  %125 = call zeroext i1 @errstart_cold(i32 noundef 21, ptr noundef null) #10
  br i1 %125, label %128, label %133

126:                                              ; preds = %123
  %127 = call zeroext i1 @errstart(i32 noundef 21, ptr noundef null)
  br i1 %127, label %128, label %133

128:                                              ; preds = %126, %124
  %129 = load ptr, ptr %2, align 8
  %130 = getelementptr inbounds nuw %struct.Node, ptr %129, i32 0, i32 0
  %131 = load i32, ptr %130, align 4
  %132 = call i32 (ptr, ...) @errmsg_internal(ptr noundef @.str, i32 noundef %131)
  call void @errfinish(ptr noundef @.str.1, i32 noundef 1003, ptr noundef @__func__.get_indexpath_pages)
  br label %133

133:                                              ; preds = %128, %126, %124
  unreachable

134:                                              ; No predecessors!
  br label %135

135:                                              ; preds = %134
  br label %136

136:                                              ; preds = %135, %114
  br label %137

137:                                              ; preds = %136, %108
  br label %138

138:                                              ; preds = %137, %58
  %139 = load double, ptr %3, align 8
  call void @llvm.lifetime.end.p0(i64 8, ptr %4) #9
  call void @llvm.lifetime.end.p0(i64 8, ptr %3) #9
  ret double %139
}