; Function Attrs: nounwind uwtable
define internal fastcc double @get_indexpath_pages(ptr noundef readonly captures(none) %0) unnamed_addr #2 {
  %2 = load i32, ptr %0, align 4
  switch i32 %2, label %39 [
    i32 282, label %3
    i32 283, label %18
    i32 279, label %33
  ]

3:                                                ; preds = %1
  %4 = getelementptr inbounds nuw i8, ptr %0, i64 80
  %5 = load ptr, ptr %4, align 8
  %6 = getelementptr inbounds nuw i8, ptr %5, i64 4
  %.not32 = icmp eq ptr %5, null
  br i1 %.not32, label %.thread, label %.lr.ph52

.lr.ph52:                                         ; preds = %3
  %7 = getelementptr inbounds nuw i8, ptr %5, i64 16
  %8 = load i32, ptr %6, align 4
  %9 = icmp sgt i32 %8, 0
  br i1 %9, label %.lr.ph60, label %.thread

.lr.ph60:                                         ; preds = %.lr.ph52, %.lr.ph60
  %indvars.iv65 = phi i64 [ %indvars.iv.next66, %.lr.ph60 ], [ 0, %.lr.ph52 ]
  %.05158 = phi double [ %14, %.lr.ph60 ], [ 0.000000e+00, %.lr.ph52 ]
  %10 = load ptr, ptr %7, align 8
  %11 = getelementptr inbounds nuw %union.ListCell, ptr %10, i64 %indvars.iv65
  %12 = load ptr, ptr %11, align 8
  %13 = tail call fastcc double @get_indexpath_pages(ptr noundef %12)
  %14 = fadd double %.05158, %13
  %indvars.iv.next66 = add nuw nsw i64 %indvars.iv65, 1
  %15 = load i32, ptr %6, align 4
  %16 = sext i32 %15 to i64
  %17 = icmp slt i64 %indvars.iv.next66, %16
  br i1 %17, label %.lr.ph60, label %.thread

18:                                               ; preds = %1
  %19 = getelementptr inbounds nuw i8, ptr %0, i64 80
  %20 = load ptr, ptr %19, align 8
  %21 = getelementptr inbounds nuw i8, ptr %20, i64 4
  %.not = icmp eq ptr %20, null
  br i1 %.not, label %.thread, label %.lr.ph

.lr.ph:                                           ; preds = %18
  %22 = getelementptr inbounds nuw i8, ptr %20, i64 16
  %23 = load i32, ptr %21, align 4
  %24 = icmp sgt i32 %23, 0
  br i1 %24, label %.lr.ph48, label %.thread

.lr.ph48:                                         ; preds = %.lr.ph, %.lr.ph48
  %indvars.iv = phi i64 [ %indvars.iv.next, %.lr.ph48 ], [ 0, %.lr.ph ]
  %.24246 = phi double [ %29, %.lr.ph48 ], [ 0.000000e+00, %.lr.ph ]
  %25 = load ptr, ptr %22, align 8
  %26 = getelementptr inbounds nuw %union.ListCell, ptr %25, i64 %indvars.iv
  %27 = load ptr, ptr %26, align 8
  %28 = tail call fastcc double @get_indexpath_pages(ptr noundef %27)
  %29 = fadd double %.24246, %28
  %indvars.iv.next = add nuw nsw i64 %indvars.iv, 1
  %30 = load i32, ptr %21, align 4
  %31 = sext i32 %30 to i64
  %32 = icmp slt i64 %indvars.iv.next, %31
  br i1 %32, label %.lr.ph48, label %.thread

33:                                               ; preds = %1
  %34 = getelementptr inbounds nuw i8, ptr %0, i64 80
  %35 = load ptr, ptr %34, align 8
  %36 = getelementptr inbounds nuw i8, ptr %35, i64 24
  %37 = load i32, ptr %36, align 8
  %38 = uitofp i32 %37 to double
  br label %.thread

39:                                               ; preds = %1
  %40 = tail call zeroext i1 @errstart_cold(i32 noundef 21, ptr noundef null) #18
  tail call void @llvm.assume(i1 %40)
  %41 = load i32, ptr %0, align 4
  %42 = tail call i32 (ptr, ...) @errmsg_internal(ptr noundef nonnull @.str, i32 noundef %41) #17
  tail call void @errfinish(ptr noundef nonnull @.str.1, i32 noundef 1003, ptr noundef nonnull @__func__.get_indexpath_pages) #17
  unreachable

.thread:                                          ; preds = %.lr.ph48, %.lr.ph60, %18, %.lr.ph, %3, %.lr.ph52, %33
  %.1 = phi double [ %38, %33 ], [ 0.000000e+00, %3 ], [ 0.000000e+00, %.lr.ph52 ], [ 0.000000e+00, %18 ], [ 0.000000e+00, %.lr.ph ], [ %14, %.lr.ph60 ], [ %29, %.lr.ph48 ]
  ret double %.1
}